; Function Attrs: inlinehint mustprogress uwtable
define internal void @"_ZZNSt9once_flag18_Prepare_executionC1IZSt9call_onceIZN10duckdb_re26Regexp6IncrefEvE3$_0JEEvRS_OT_DpOT0_EUlvE_EERS7_ENUlvE_8__invokeEv"() #22 align 2 personality ptr @__gxx_personality_v0 {
  %1 = tail call i32 @pthread_rwlock_init(ptr noundef nonnull align 8 dereferenceable(56) @_ZN10duckdb_re2L11ref_storageE, ptr noundef null) #27
  %.not.i.i.i.i.i.i.i = icmp eq i32 %1, 0
  br i1 %.not.i.i.i.i.i.i.i, label %"_ZZNSt9once_flag18_Prepare_executionC1IZSt9call_onceIZN10duckdb_re26Regexp6IncrefEvE3$_0JEEvRS_OT_DpOT0_EUlvE_EERS7_ENKUlvE_clEv.exit", label %2

2:                                                ; preds = %0
  %3 = tail call ptr @__cxa_allocate_exception(i64 16) #27
  invoke void @_ZNSt13runtime_errorC1EPKc(ptr noundef nonnull align 8 dereferenceable(16) %3, ptr noundef nonnull @.str.4)
          to label %4 unwind label %5

4:                                                ; preds = %2
  tail call void @__cxa_throw(ptr nonnull %3, ptr nonnull @_ZTISt13runtime_error, ptr nonnull @_ZNSt13runtime_errorD1Ev) #30
  unreachable

5:                                                ; preds = %2
  %6 = landingpad { ptr, i32 }
          cleanup
  tail call void @__cxa_free_exception(ptr nonnull %3) #27
  resume { ptr, i32 } %6

"_ZZNSt9once_flag18_Prepare_executionC1IZSt9call_onceIZN10duckdb_re26Regexp6IncrefEvE3$_0JEEvRS_OT_DpOT0_EUlvE_EERS7_ENKUlvE_clEv.exit": ; preds = %0
  store i32 0, ptr getelementptr inbounds nuw (i8, ptr @_ZN10duckdb_re2L11ref_storageE, i64 64), align 8, !tbaa !114
  store ptr null, ptr getelementptr inbounds nuw (i8, ptr @_ZN10duckdb_re2L11ref_storageE, i64 72), align 8, !tbaa !33
  store ptr getelementptr inbounds nuw (i8, ptr @_ZN10duckdb_re2L11ref_storageE, i64 64), ptr getelementptr inbounds nuw (i8, ptr @_ZN10duckdb_re2L11ref_storageE, i64 80), align 8, !tbaa !115
  store ptr getelementptr inbounds nuw (i8, ptr @_ZN10duckdb_re2L11ref_storageE, i64 64), ptr getelementptr inbounds nuw (i8, ptr @_ZN10duckdb_re2L11ref_storageE, i64 88), align 8, !tbaa !116
  store i64 0, ptr getelementptr inbounds nuw (i8, ptr @_ZN10duckdb_re2L11ref_storageE, i64 96), align 8, !tbaa !50
  ret void
}